; ModuleID = '19/428.c'
source_filename = "19/428.c"
target datalayout = "e-m:e-p270:32:32-p271:32:32-p272:64:64-i64:64-f80:128-n8:16:32:64-S128"
target triple = "x86_64-pc-linux-gnu"

@.str = private unnamed_addr constant [3 x i8] c"%s\00", align 1
@.str.1 = private unnamed_addr constant [5 x i8] c"%s%s\00", align 1
@.str.2 = private unnamed_addr constant [4 x i8] c" %s\00", align 1

; Function Attrs: noinline nounwind uwtable
define dso_local void @main() #0 {
  %1 = alloca [20 x [20 x i8]], align 16
  %2 = alloca [20 x i8], align 16
  %3 = alloca [20 x i8], align 16
  %4 = alloca i8*, align 8
  %5 = alloca i8*, align 8
  %6 = alloca [20 x i8*], align 16
  %7 = alloca i32, align 4
  %8 = alloca i32, align 4
  store i32 0, i32* %7, align 4
  store i32 0, i32* %7, align 4
  br label %9

9:                                                ; preds = %20, %0
  %10 = load i32, i32* %7, align 4
  %11 = icmp slt i32 %10, 20
  br i1 %11, label %12, label %23

12:                                               ; preds = %9
  %13 = load i32, i32* %7, align 4
  %14 = sext i32 %13 to i64
  %15 = getelementptr inbounds [20 x [20 x i8]], [20 x [20 x i8]]* %1, i64 0, i64 %14
  %16 = getelementptr inbounds [20 x i8], [20 x i8]* %15, i64 0, i64 0
  %17 = load i32, i32* %7, align 4
  %18 = sext i32 %17 to i64
  %19 = getelementptr inbounds [20 x i8*], [20 x i8*]* %6, i64 0, i64 %18
  store i8* %16, i8** %19, align 8
  br label %20

20:                                               ; preds = %12
  %21 = load i32, i32* %7, align 4
  %22 = add nsw i32 %21, 1
  store i32 %22, i32* %7, align 4
  br label %9

23:                                               ; preds = %9
  store i32 0, i32* %7, align 4
  br label %24

24:                                               ; preds = %23, %33
  %25 = load i32, i32* %7, align 4
  %26 = sext i32 %25 to i64
  %27 = getelementptr inbounds [20 x [20 x i8]], [20 x [20 x i8]]* %1, i64 0, i64 %26
  %28 = getelementptr inbounds [20 x i8], [20 x i8]* %27, i64 0, i64 0
  %29 = call i32 (i8*, ...) @__isoc99_scanf(i8* getelementptr inbounds ([3 x i8], [3 x i8]* @.str, i64 0, i64 0), i8* %28)
  %30 = call i32 @getchar()
  %31 = icmp eq i32 %30, 10
  br i1 %31, label %32, label %33

32:                                               ; preds = %24
  br label %36

33:                                               ; preds = %24
  %34 = load i32, i32* %7, align 4
  %35 = add nsw i32 %34, 1
  store i32 %35, i32* %7, align 4
  br label %24

36:                                               ; preds = %32
  %37 = getelementptr inbounds [20 x i8], [20 x i8]* %2, i64 0, i64 0
  %38 = getelementptr inbounds [20 x i8], [20 x i8]* %3, i64 0, i64 0
  %39 = call i32 (i8*, ...) @__isoc99_scanf(i8* getelementptr inbounds ([5 x i8], [5 x i8]* @.str.1, i64 0, i64 0), i8* %37, i8* %38)
  %40 = getelementptr inbounds [20 x i8], [20 x i8]* %2, i64 0, i64 0
  store i8* %40, i8** %4, align 8
  %41 = getelementptr inbounds [20 x i8], [20 x i8]* %3, i64 0, i64 0
  store i8* %41, i8** %5, align 8
  store i32 0, i32* %8, align 4
  br label %42

42:                                               ; preds = %60, %36
  %43 = load i32, i32* %8, align 4
  %44 = load i32, i32* %7, align 4
  %45 = icmp sle i32 %43, %44
  br i1 %45, label %46, label %63

46:                                               ; preds = %42
  %47 = load i32, i32* %8, align 4
  %48 = sext i32 %47 to i64
  %49 = getelementptr inbounds [20 x i8*], [20 x i8*]* %6, i64 0, i64 %48
  %50 = load i8*, i8** %49, align 8
  %51 = load i8*, i8** %4, align 8
  %52 = call i32 @strcmp(i8* %50, i8* %51) #3
  %53 = icmp eq i32 %52, 0
  br i1 %53, label %54, label %59

54:                                               ; preds = %46
  %55 = load i8*, i8** %5, align 8
  %56 = load i32, i32* %8, align 4
  %57 = sext i32 %56 to i64
  %58 = getelementptr inbounds [20 x i8*], [20 x i8*]* %6, i64 0, i64 %57
  store i8* %55, i8** %58, align 8
  br label %59

59:                                               ; preds = %54, %46
  br label %60

60:                                               ; preds = %59
  %61 = load i32, i32* %8, align 4
  %62 = add nsw i32 %61, 1
  store i32 %62, i32* %8, align 4
  br label %42

63:                                               ; preds = %42
  store i32 0, i32* %8, align 4
  br label %64

64:                                               ; preds = %84, %63
  %65 = load i32, i32* %8, align 4
  %66 = load i32, i32* %7, align 4
  %67 = icmp sle i32 %65, %66
  br i1 %67, label %68, label %87

68:                                               ; preds = %64
  %69 = load i32, i32* %8, align 4
  %70 = icmp eq i32 %69, 0
  br i1 %70, label %71, label %77

71:                                               ; preds = %68
  %72 = load i32, i32* %8, align 4
  %73 = sext i32 %72 to i64
  %74 = getelementptr inbounds [20 x i8*], [20 x i8*]* %6, i64 0, i64 %73
  %75 = load i8*, i8** %74, align 8
  %76 = call i32 (i8*, ...) @printf(i8* getelementptr inbounds ([3 x i8], [3 x i8]* @.str, i64 0, i64 0), i8* %75)
  br label %83

77:                                               ; preds = %68
  %78 = load i32, i32* %8, align 4
  %79 = sext i32 %78 to i64
  %80 = getelementptr inbounds [20 x i8*], [20 x i8*]* %6, i64 0, i64 %79
  %81 = load i8*, i8** %80, align 8
  %82 = call i32 (i8*, ...) @printf(i8* getelementptr inbounds ([4 x i8], [4 x i8]* @.str.2, i64 0, i64 0), i8* %81)
  br label %83

83:                                               ; preds = %77, %71
  br label %84

84:                                               ; preds = %83
  %85 = load i32, i32* %8, align 4
  %86 = add nsw i32 %85, 1
  store i32 %86, i32* %8, align 4
  br label %64

87:                                               ; preds = %64
  ret void
}

declare dso_local i32 @__isoc99_scanf(i8*, ...) #1

declare dso_local i32 @getchar() #1

; Function Attrs: nounwind readonly
declare dso_local i32 @strcmp(i8*, i8*) #2

declare dso_local i32 @printf(i8*, ...) #1


!llvm.module.flags = !{!0}
!llvm.ident = !{!1}

!0 = !{i32 1, !"wchar_size", i32 4}
!1 = !{!"clang version 10.0.0-4ubuntu1 "}
